target datalayout = "e-m:e-p270:32:32-p271:32:32-p272:64:64-i64:64-i128:128-f80:128-n8:16:32:64-S128"
target triple = "x86_64-pc-linux-gnu"

; Function Attrs: nounwind uwtable
define internal i32 @encode_frame_hdr(ptr noundef %0, i64 noundef %1) #0 {
  %3 = alloca ptr, align 8
  %4 = alloca i64, align 8
  store ptr %0, ptr %3, align 8, !tbaa !21
  store i64 %1, ptr %4, align 8, !tbaa !8
  %5 = load ptr, ptr %3, align 8, !tbaa !21
  %6 = load i64, ptr %4, align 8, !tbaa !8
  %7 = call i32 @WPACKET_quic_write_vlint(ptr noundef %5, i64 noundef %6)
  ret i32 %7
}

; Function Attrs: nounwind uwtable
define i32 @ossl_quic_wire_encode_frame_retire_conn_id(ptr noundef %0, i64 noundef %1) #0 {
  %3 = alloca i32, align 4
  %4 = alloca ptr, align 8
  %5 = alloca i64, align 8
  store ptr %0, ptr %4, align 8, !tbaa !21
  store i64 %1, ptr %5, align 8, !tbaa !8
  %6 = load ptr, ptr %4, align 8, !tbaa !21
  %7 = call i32 @encode_frame_hdr(ptr noundef %6, i64 noundef 25)
  %8 = icmp ne i32 %7, 0
  br i1 %8, label %9, label %14

9:                                                ; preds = %2
  %10 = load ptr, ptr %4, align 8, !tbaa !21
  %11 = load i64, ptr %5, align 8, !tbaa !8
  %12 = call i32 @WPACKET_quic_write_vlint(ptr noundef %10, i64 noundef %11)
  %13 = icmp ne i32 %12, 0
  br i1 %13, label %15, label %14

14:                                               ; preds = %9, %2
  store i32 0, ptr %3, align 4
  br label %16

15:                                               ; preds = %9
  store i32 1, ptr %3, align 4
  br label %16

16:                                               ; preds = %15, %14
  %17 = load i32, ptr %3, align 4
  ret i32 %17
}